; Function Attrs: nounwind sspstrong uwtable
define dso_local noundef nonnull ptr @rb_str_to_parser_string(ptr readnone captures(none) %0, i64 noundef %1) local_unnamed_addr #0 {
  %3 = alloca i64, align 8
  %4 = alloca ptr, align 8
  store i64 %1, ptr %3, align 8, !tbaa !7
  %5 = inttoptr i64 %1 to ptr
  %6 = load i64, ptr %5, align 8, !tbaa !11, !noalias !13
  %7 = and i64 %6, 8192
  %.not.i.i = icmp eq i64 %7, 0
  %8 = getelementptr inbounds nuw i8, ptr %5, i64 24
  br i1 %.not.i.i, label %RSTRING_PTR.exit, label %9

9:                                                ; preds = %2
  %.sroa.2.0.copyload.i = load ptr, ptr %8, align 8
  br label %RSTRING_PTR.exit

RSTRING_PTR.exit:                                 ; preds = %2, %9
  %.sroa.2.0.i = phi ptr [ %.sroa.2.0.copyload.i, %9 ], [ %8, %2 ]
  %10 = getelementptr inbounds nuw i8, ptr %5, i64 16
  %11 = load i64, ptr %10, align 8, !tbaa !16
  %12 = tail call ptr @rb_enc_get(i64 noundef %1) #35
  %13 = icmp slt i64 %11, 0
  br i1 %13, label %14, label %15

14:                                               ; preds = %RSTRING_PTR.exit
  tail call void (ptr, ...) @rb_bug(ptr noundef nonnull @.str.80, i64 noundef %11) #36
  unreachable

15:                                               ; preds = %RSTRING_PTR.exit
  %16 = tail call noalias nonnull dereferenceable(32) ptr @ruby_xcalloc(i64 noundef 1, i64 noundef 32) #37
  %17 = add nuw i64 %11, 1
  %18 = tail call noalias nonnull ptr @ruby_xcalloc(i64 noundef %17, i64 noundef 1) #37
  %19 = getelementptr inbounds nuw i8, ptr %16, i64 24
  store ptr %18, ptr %19, align 8, !tbaa !18
  %.not.i.i3 = icmp eq ptr %.sroa.2.0.i, null
  %.not.i.i.i = icmp eq i64 %11, 0
  %or.cond.i.i = or i1 %.not.i.i3, %.not.i.i.i
  br i1 %or.cond.i.i, label %rb_parser_encoding_string_new.exit, label %20

20:                                               ; preds = %15
  tail call void @llvm.memcpy.p0.p0.i64(ptr noundef nonnull align 1 %18, ptr noundef nonnull readonly align 1 %.sroa.2.0.i, i64 noundef range(i64 1, 0) %11, i1 noundef false) #35
  br label %rb_parser_encoding_string_new.exit

rb_parser_encoding_string_new.exit:               ; preds = %15, %20
  %21 = getelementptr inbounds nuw i8, ptr %16, i64 16
  store i64 %11, ptr %21, align 8, !tbaa !24
  %22 = getelementptr i8, ptr %18, i64 %11
  store i8 0, ptr %22, align 1, !tbaa !25
  store i32 0, ptr %16, align 8, !tbaa !26
  %23 = getelementptr inbounds nuw i8, ptr %16, i64 8
  store ptr %12, ptr %23, align 8, !tbaa !27
  call void @llvm.lifetime.start.p0(i64 8, ptr nonnull %4) #35
  store ptr %3, ptr %4, align 8, !tbaa !28
  call void asm sideeffect "", "*m,~{dirflag},~{fpsr},~{flags}"(ptr nonnull elementtype(ptr) %4) #35, !srcloc !30
  %24 = load ptr, ptr %4, align 8, !tbaa !28
  call void @llvm.lifetime.end.p0(i64 8, ptr nonnull %4) #35
  %25 = load volatile i64, ptr %24, align 8, !tbaa !7
  ret ptr %16
}